(dp0
S'input'
p1
(dp2
S'encoded'
p3
cnumpy.core.multiarray
_reconstruct
p4
(cnumpy
ndarray
p5
(I0
tp6
S'b'
p7
tp8
Rp9
(I1
(I20
tp10
cnumpy
dtype
p11
(S'i4'
p12
I0
I1
tp13
Rp14
(I3
S'<'
p15
NNNI-1
I-1
I0
tp16
bI00
S'\x05\x00\x00\x00\xb4\x06\x00\x00\x1d\x04\x00\x00\x04\x00\x00\x00\n\x05\x00\x00\xb5\x06\x00\x00\x05\x00\x00\x00\xce\x05\x00\x00\x07\x00\x00\x00\xb0\x00\x00\x00~\x01\x00\x00\xa4\x00\x00\x00\x03\x00\x00\x00j\x06\x00\x00P\x03\x00\x00\x05\x00\x00\x00\xb6\x06\x00\x001\x00\x00\x00"\x03\x00\x00Q\x03\x00\x00'
p17
tp18
bsS'ori'
p19
S'this house would use foreign aid funds to research and distribute software that allows bloggers and journalists in non-democratic countries to evade censorship and conceal their online activities'
p20
ssS'output'
p21
(dp22
g3
g4
(g5
(I0
tp23
g7
tp24
Rp25
(I1
(I20
tp26
g14
I00
S'1\x00\x00\x00\xfa\x0f\x00\x00\x03\x00\x00\x00\x10\x00\x00\x00\x86\x0e\x00\x00\x19\x00\x00\x00\x01\x00\x00\x00\x8d\x1b\x00\x00\x11\x00\x00\x00<\x01\x00\x00%\x06\x00\x00\x18\t\x00\x00\x88\x14\x00\x00"\t\x00\x00\x04\x00\x00\x00\x17\x00\x00\x00Y\x00\x00\x00\xe9,\x00\x00\xe6\x0e\x00\x00\x0b\x00\x00\x00'
p27
tp28
bsg19
S'one of the earliest known uses of the internet as a medium for activism was that around lotus marketplace. on april 10, 1990, lotus announced a direct-mail marketing database product that was to contain name, address, and spending habit information on 120 million individual u.s. citizens. while much of the same data was already available, privacy advocates worried about the availability of this data within one database. furthermore, the data would be on cd-rom, and so would remain fixed until a new cd-rom was issued.   in response, a mass e-mail and e-bulletin-board campaign was started, which included information on contacting lotus and form letters. larry seiler, a new england-based computer professional posted a message that was widely reposted on newsgroups and via e-mail: "it will contain a lot of personal information about you, which anyone in the country can access by just buying the discs. it seems to me (and to a lot of other people, too) that this will be a little too much like big brother, and it seems like a good idea to get out while there is still time."over 30,000 people contacted lotus and asked for their names to be removed from the database. on january 23, 1991, lotus announced that it had cancelled marketplace [ref'
p29
ss.