(dp0
S'input'
p1
(dp2
S'encoded'
p3
cnumpy.core.multiarray
_reconstruct
p4
(cnumpy
ndarray
p5
(I0
tp6
S'b'
p7
tp8
Rp9
(I1
(I20
tp10
cnumpy
dtype
p11
(S'i4'
p12
I0
I1
tp13
Rp14
(I3
S'<'
p15
NNNI-1
I-1
I0
tp16
bI00
S'\x06\x00\x00\x00\x08\x00\x00\x00\n\x00\x00\x00\x04\x00\x00\x00\x1b\x00\x00\x00#\x00\x00\x00"\x00\x00\x00\x18\x00\x00\x00&\x00\x00\x00\x16\x00\x00\x00\x0f\x00\x00\x00\x15\x00\x00\x00\x1c\x00\x00\x00\x00\x00\x00\x00\x00\x00\x00\x00\x00\x00\x00\x00\x00\x00\x00\x00\x00\x00\x00\x00\x00\x00\x00\x00\x00\x00\x00\x00'
p17
tp18
bsS'ori'
p19
S"this house believes that israel's 2008-2009 military operations against gaza were justified"
p20
ssS'output'
p21
(dp22
g3
g4
(g5
(I0
tp23
g7
tp24
Rp25
(I1
(I20
tp26
g14
I00
S'\x04\x00\x00\x00c\x00\x00\x00\x0c\x00\x00\x00W\x00\x00\x00M\x00\x00\x00\xaf\x02\x00\x00\xcc\x0e\x00\x00\x0e\x00\x00\x00\xc2\x00\x00\x00\xb7\x00\x00\x00\x1f\x00\x00\x00\x9d\x03\x00\x00M\x00\x00\x00I\x00\x00\x00\t\x00\x00\x00G\x02\x00\x00\xfe\x02\x00\x00\x02\x00\x00\x00`\x00\x00\x00\x0b\x00\x00\x00'
p27
tp28
bsg19
S'the report stated that the strike on the al-maqadmah mosque on the outskirts of jabilyah occurred when between 200 and 300 men and women attended for their evening prayer, with 15 people being killed and 40 wounded as a result of the attack. the mission has established that the israeli armed forces fired a missile that struck near the doorway of the mosque. the mission found that the mosque was damaged and lodged in its interior walls with "small metal cubes", several of which were retrieved by the mission when it inspected the site. the mission concluded that the mosque had been hit by an air-to-ground missile fitted with a shrapnel fragmentation sleeve, fired from an aircraft. the mission based its findings on investigation of the site, photographs and interviewing witnesses. the mission found no indications that the mosque was used to launch rockets, store munitions or shelter combatants. the mission also found that no other damage was done in the area at the time, making the attack an isolated incident. the mission concluded that the israelis intentionally bombed the mosque [ref]. judge goldstone said: "assuming that weapons were stored in the mosque, it would not be a war crime to bomb it at night.. it would be a war crime to bomb it during the day when 350 people are praying". he further added that there is no other possible interpretation for what could have occurred other than a deliberate targeting of civilians [ref'
p29
ss.