(dp0
S'input'
p1
(dp2
S'encoded'
p3
cnumpy.core.multiarray
_reconstruct
p4
(cnumpy
ndarray
p5
(I0
tp6
S'b'
p7
tp8
Rp9
(I1
(I20
tp10
cnumpy
dtype
p11
(S'i4'
p12
I0
I1
tp13
Rp14
(I3
S'<'
p15
NNNI-1
I-1
I0
tp16
bI00
S'\x06\x00\x00\x00\x08\x00\x00\x00\n\x00\x00\x00\x04\x00\x00\x00$\x00\x00\x00\x13\x00\x00\x00B\x00\x00\x00\x01\x00\x00\x00(\x00\x00\x00\x02\x00\x00\x00\x0f\x00\x00\x00\x00\x00\x00\x00\x00\x00\x00\x00\x00\x00\x00\x00\x00\x00\x00\x00\x00\x00\x00\x00\x00\x00\x00\x00\x00\x00\x00\x00\x00\x00\x00\x00\x00\x00\x00\x00'
p17
tp18
bsS'ori'
p19
S'this house believes that israel should lift the blockade of gaza'
p20
ssS'output'
p21
(dp22
g3
g4
(g5
(I0
tp23
g7
tp24
Rp25
(I1
(I20
tp26
g14
I00
S'|\x01\x00\x00k,\x00\x00E\x00\x00\x00\xc6!\x00\x00\xc7!\x00\x00\x01\x00\x00\x00D\x10\x00\x00\x19\x00\x00\x00\xc8!\x00\x00\xf5\x06\x00\x00\x01\x00\x00\x00q\x1a\x00\x00\x05\x00\x00\x00\xa9\x05\x00\x00\x17\x00\x00\x00\x03\x00\x00\x00\xcc!\x00\x00\x03\x00\x00\x00\x84\x17\x00\x00\x0b\x00\x00\x00'
p27
tp28
bsg19
S'on 31 may 2010 the israeli navy seized an aid convoy of six ships known as the "gaza freedom flotilla" [ref]. aiming to break through the blockade. the flotilla had declined an israeli request to change course to the port of ashdod, where the israeli government had said it would inspect the aid and deliver (or let humanitarian organizations deliver) israeli-approved items to gaza [ref].   israeli shayetet 13 naval commandos boarded the ships from speedboats and helicopters launched from three missile ships. on the mv mavi marmara, the main ship of the convoy, passengers fiercely resisted the boarding with makeshift weapons and live fire, including from guns seized from soldiers. passengers managed to capture three soldiers [ref]. after failing to disperse the activists using non-lethal means, the soldiers resorted to live fire. on other ships, soldiers were met with passive resistance which was easily suppressed with non-lethal techniques. nine passengers were killed and dozens wounded. nine soldiers were also injured, two of them seriously. all of the ships were seized and towed to ashdod, while passengers were imprisoned in israel and then deported to their home countries [ref]. [ref][ref][ref][ref] the mv rachel corrie, a seventh ship that had been delayed, set sail from malta on the same day of the flotilla\'s interception. israeli naval vessels shadowed the rachel corrie, and after it ignored three warnings, israeli commandos boarded the ship from speedboats, arrested the crew, and forced it to sail to ashdod [ref'
p29
ss.