(dp0
S'input'
p1
(dp2
S'encoded'
p3
cnumpy.core.multiarray
_reconstruct
p4
(cnumpy
ndarray
p5
(I0
tp6
S'b'
p7
tp8
Rp9
(I1
(I20
tp10
cnumpy
dtype
p11
(S'i4'
p12
I0
I1
tp13
Rp14
(I3
S'<'
p15
NNNI-1
I-1
I0
tp16
bI00
S'\x06\x00\x00\x00\x08\x00\x00\x00\n\x00\x00\x00\x04\x00\x00\x00$\x00\x00\x00\x13\x00\x00\x00B\x00\x00\x00\x01\x00\x00\x00(\x00\x00\x00\x02\x00\x00\x00\x0f\x00\x00\x00\x00\x00\x00\x00\x00\x00\x00\x00\x00\x00\x00\x00\x00\x00\x00\x00\x00\x00\x00\x00\x00\x00\x00\x00\x00\x00\x00\x00\x00\x00\x00\x00\x00\x00\x00\x00'
p17
tp18
bsS'ori'
p19
S'this house believes that israel should lift the blockade of gaza'
p20
ssS'output'
p21
(dp22
g3
g4
(g5
(I0
tp23
g7
tp24
Rp25
(I1
(I20
tp26
g14
I00
S'\xcd\x00\x00\x00Q\x06\x00\x00\x1e\x00\x00\x00\x1d\x06\x00\x00\x14\x00\x00\x00\x01\x00\x00\x00\xb3\r\x00\x00\x84\x0b\x00\x00\xa1\x01\x00\x00\x0e\x00\x00\x00\x10\x05\x00\x00\x05\x00\x00\x00\x01\x00\x00\x00\x1c\x06\x00\x00\x92\n\x00\x00\x02\x00\x00\x00\x01\x00\x00\x00o\x17\x00\x00 \x12\x00\x00\x0b\x00\x00\x00'
p27
tp28
bsg19
S'in january and february 2011, the united nations office for the coordination of humanitarian affairs (unocha) conducted an assessment of the effects of the measures to ease the access restrictions [ref]. they concluded that they did not result in a significant improvement in people\xe2\x80\x99s livelihoods [ref].   they found that a limited reactivation of the private sector resulted from the increased availability of consumer goods and some raw materials but the "pivotal nature of the remaining restrictions" and the effects of three years of strict blockade prevented a significant improvement in livelihoods [ref]. although the unemployment rate in gaza fell from 39.3% to 37.4% in the second half of 2010 there were significant food price rises [ref]. there was little or no improvement in food insecurity rates in gaza which continued to affect 52% of the population [ref]. few of the 40,000 housing units needed to replace homes lost during operation cast lead and for natural population growth could be built as a result of the ongoing restrictions on importing building materials [ref]. the approval of over 100 projects funded by international organizations intended to improve the "extremely deteriorated" water and sanitation, education and health services, followed the easing of the blockade [ref]. the implementation of these projects was delayed by the entry approval process for materials and the limited opening of the karni crossing [ref'
p29
ss.